target datalayout = "e-m:e-p270:32:32-p271:32:32-p272:64:64-i64:64-i128:128-f80:128-n8:16:32:64-S128"
target triple = "x86_64-pc-linux-gnu"

%struct.stat = type { i64, i64, i64, i32, i32, i32, i32, i64, i64, i64, i64, %struct.timespec, %struct.timespec, %struct.timespec, [3 x i64] }
%struct.timespec = type { i64, i64 }
%struct.RFile = type { %struct.RBasic, ptr }
%struct.RBasic = type { i64, i64 }
%struct.rb_io = type { i64, ptr, i32, i32, i32, i32, i64, ptr, %struct.rb_io_internal_buffer, %struct.rb_io_internal_buffer, i64, %struct.rb_io_encoding, ptr, %struct.rb_io_internal_buffer, ptr, i64, i32, i32, i64, i64, i64 }
%struct.rb_io_encoding = type { ptr, ptr, i32, i64 }
%struct.rb_io_internal_buffer = type <{ ptr, i32, i32, i32 }>

@__func__.rb_file_ctime = private unnamed_addr constant [14 x i8] c"rb_file_ctime\00", align 1

; Function Attrs: nounwind sspstrong uwtable
define internal i64 @stat_time(i64 %0, i64 %1) #0 {
  %3 = alloca %struct.timespec, align 8
  %4 = getelementptr inbounds nuw { i64, i64 }, ptr %3, i32 0, i32 0
  store i64 %0, ptr %4, align 8
  %5 = getelementptr inbounds nuw { i64, i64 }, ptr %3, i32 0, i32 1
  store i64 %1, ptr %5, align 8
  %6 = getelementptr inbounds nuw %struct.timespec, ptr %3, i32 0, i32 0
  %7 = load i64, ptr %6, align 8, !tbaa !155
  %8 = getelementptr inbounds nuw %struct.timespec, ptr %3, i32 0, i32 1
  %9 = load i64, ptr %8, align 8, !tbaa !156
  %10 = call i64 @rb_time_nano_new(i64 noundef %7, i64 noundef %9)
  ret i64 %10
}

; Function Attrs: nounwind sspstrong uwtable
define internal { i64, i64 } @stat_ctimespec(ptr noundef %0) #0 {
  %2 = alloca %struct.timespec, align 8
  %3 = alloca ptr, align 8
  store ptr %0, ptr %3, align 8, !tbaa !22
  %4 = load ptr, ptr %3, align 8, !tbaa !22
  %5 = getelementptr inbounds nuw %struct.stat, ptr %4, i32 0, i32 13
  %6 = getelementptr inbounds nuw %struct.timespec, ptr %5, i32 0, i32 0
  %7 = load i64, ptr %6, align 8, !tbaa !221
  %8 = getelementptr inbounds nuw %struct.timespec, ptr %2, i32 0, i32 0
  store i64 %7, ptr %8, align 8, !tbaa !155
  %9 = load ptr, ptr %3, align 8, !tbaa !22
  %10 = getelementptr inbounds nuw %struct.stat, ptr %9, i32 0, i32 13
  %11 = getelementptr inbounds nuw %struct.timespec, ptr %10, i32 0, i32 1
  %12 = load i64, ptr %11, align 8, !tbaa !222
  %13 = getelementptr inbounds nuw %struct.timespec, ptr %2, i32 0, i32 1
  store i64 %12, ptr %13, align 8, !tbaa !156
  %14 = load { i64, i64 }, ptr %2, align 8
  ret { i64, i64 } %14
}

; Function Attrs: nounwind sspstrong uwtable
define internal i64 @stat_ctime(ptr noundef %0) #0 {
  %2 = alloca ptr, align 8
  %3 = alloca %struct.timespec, align 8
  store ptr %0, ptr %2, align 8, !tbaa !22
  %4 = load ptr, ptr %2, align 8, !tbaa !22
  %5 = call { i64, i64 } @stat_ctimespec(ptr noundef %4)
  %6 = getelementptr inbounds nuw { i64, i64 }, ptr %3, i32 0, i32 0
  %7 = extractvalue { i64, i64 } %5, 0
  store i64 %7, ptr %6, align 8
  %8 = getelementptr inbounds nuw { i64, i64 }, ptr %3, i32 0, i32 1
  %9 = extractvalue { i64, i64 } %5, 1
  store i64 %9, ptr %8, align 8
  %10 = getelementptr inbounds nuw { i64, i64 }, ptr %3, i32 0, i32 0
  %11 = load i64, ptr %10, align 8
  %12 = getelementptr inbounds nuw { i64, i64 }, ptr %3, i32 0, i32 1
  %13 = load i64, ptr %12, align 8
  %14 = call i64 @stat_time(i64 %11, i64 %13)
  ret i64 %14
}

; Function Attrs: nounwind sspstrong uwtable
define internal i64 @rb_file_ctime(i64 noundef %0) #0 {
  %2 = alloca i64, align 8
  %3 = alloca ptr, align 8
  %4 = alloca %struct.stat, align 8
  %5 = alloca i32, align 4
  store i64 %0, ptr %2, align 8, !tbaa !7
  call void @llvm.lifetime.start.p0(i64 8, ptr %3) #24
  call void @llvm.lifetime.start.p0(i64 144, ptr %4) #24
  %6 = load i64, ptr %2, align 8, !tbaa !7
  %7 = call i64 @rb_io_taint_check(i64 noundef %6)
  %8 = inttoptr i64 %7 to ptr
  %9 = getelementptr inbounds nuw %struct.RFile, ptr %8, i32 0, i32 1
  %10 = load ptr, ptr %9, align 8, !tbaa !34
  store ptr %10, ptr %3, align 8, !tbaa !38
  call void @rb_io_check_closed(ptr noundef %10)
  %11 = load ptr, ptr %3, align 8, !tbaa !38
  %12 = getelementptr inbounds nuw %struct.rb_io, ptr %11, i32 0, i32 2
  %13 = load i32, ptr %12, align 8, !tbaa !59
  %14 = call i32 @fstat(i32 noundef %13, ptr noundef %4) #24
  %15 = icmp eq i32 %14, -1
  br i1 %15, label %16, label %26

16:                                               ; preds = %1
  br label %17

17:                                               ; preds = %16
  call void @llvm.lifetime.start.p0(i64 4, ptr %5) #24
  %18 = call ptr @rb_errno_ptr()
  %19 = load i32, ptr %18, align 4, !tbaa !11
  store i32 %19, ptr %5, align 4, !tbaa !11
  %20 = load i32, ptr %5, align 4, !tbaa !11
  %21 = load ptr, ptr %3, align 8, !tbaa !38
  %22 = getelementptr inbounds nuw %struct.rb_io, ptr %21, i32 0, i32 6
  %23 = load i64, ptr %22, align 8, !tbaa !60
  call void @rb_syserr_fail_path_in(ptr noundef @__func__.rb_file_ctime, i32 noundef %20, i64 noundef %23) #28
  unreachable

24:                                               ; No predecessors!
  br label %25

25:                                               ; preds = %24
  br label %26

26:                                               ; preds = %25, %1
  %27 = call i64 @stat_ctime(ptr noundef %4)
  call void @llvm.lifetime.end.p0(i64 144, ptr %4) #24
  call void @llvm.lifetime.end.p0(i64 8, ptr %3) #24
  ret i64 %27
}